target datalayout = "e-m:e-p270:32:32-p271:32:32-p272:64:64-i64:64-i128:128-f80:128-n8:16:32:64-S128"
target triple = "x86_64-pc-linux-gnu"

%struct.AVChannelLayout = type { i32, i32, %union.anon.1, ptr }
%union.anon.1 = type { i64 }
%struct.AVFilterContext = type { ptr, ptr, ptr, ptr, ptr, i32, ptr, ptr, i32, ptr, ptr, i32, i32, ptr, ptr, ptr, ptr, i32, ptr, i32, i32 }
%struct.AudioVectorScopeContext = type { ptr, ptr, i32, i32, i32, i32, i32, i32, i32, [4 x i32], [4 x i32], double, i32, i32, i32, i32, %struct.AVRational, i32 }
%struct.AVRational = type { i32, i32 }
%struct.AVFrame = type { [8 x ptr], [8 x i32], ptr, i32, i32, i32, i32, i32, %struct.AVRational, i64, i64, %struct.AVRational, i32, ptr, i32, i32, [8 x ptr], ptr, i32, ptr, i32, i32, i32, i32, i32, i32, i32, i64, ptr, i32, ptr, ptr, i64, i64, i64, i64, ptr, %struct.AVChannelLayout, i64 }

; Function Attrs: nounwind uwtable
define internal i32 @fade(ptr noundef %0, ptr noundef %1, i32 noundef %2, i32 noundef %3) #1 {
  %5 = alloca i32, align 4
  %6 = alloca ptr, align 8
  %7 = alloca ptr, align 8
  %8 = alloca i32, align 4
  %9 = alloca i32, align 4
  %10 = alloca ptr, align 8
  %11 = alloca i32, align 4
  %12 = alloca i32, align 4
  %13 = alloca i32, align 4
  %14 = alloca i32, align 4
  %15 = alloca i32, align 4
  %16 = alloca i32, align 4
  %17 = alloca ptr, align 8
  %18 = alloca i32, align 4
  %19 = alloca i32, align 4
  store ptr %0, ptr %6, align 8, !tbaa !4
  store ptr %1, ptr %7, align 8, !tbaa !98
  store i32 %2, ptr %8, align 4, !tbaa !30
  store i32 %3, ptr %9, align 4, !tbaa !30
  call void @llvm.lifetime.start.p0(i64 8, ptr %10) #11
  %20 = load ptr, ptr %6, align 8, !tbaa !4
  %21 = getelementptr inbounds nuw %struct.AVFilterContext, ptr %20, i32 0, i32 9
  %22 = load ptr, ptr %21, align 8, !tbaa !9
  store ptr %22, ptr %10, align 8, !tbaa !22
  call void @llvm.lifetime.start.p0(i64 4, ptr %11) #11
  %23 = load ptr, ptr %10, align 8, !tbaa !22
  %24 = getelementptr inbounds nuw %struct.AudioVectorScopeContext, ptr %23, i32 0, i32 1
  %25 = load ptr, ptr %24, align 8, !tbaa !74
  %26 = getelementptr inbounds nuw %struct.AVFrame, ptr %25, i32 0, i32 1
  %27 = getelementptr inbounds [8 x i32], ptr %26, i64 0, i64 0
  %28 = load i32, ptr %27, align 8, !tbaa !30
  store i32 %28, ptr %11, align 4, !tbaa !30
  call void @llvm.lifetime.start.p0(i64 4, ptr %12) #11
  %29 = load ptr, ptr %10, align 8, !tbaa !22
  %30 = getelementptr inbounds nuw %struct.AudioVectorScopeContext, ptr %29, i32 0, i32 1
  %31 = load ptr, ptr %30, align 8, !tbaa !74
  %32 = getelementptr inbounds nuw %struct.AVFrame, ptr %31, i32 0, i32 4
  %33 = load i32, ptr %32, align 4, !tbaa !80
  store i32 %33, ptr %12, align 4, !tbaa !30
  call void @llvm.lifetime.start.p0(i64 4, ptr %13) #11
  %34 = load i32, ptr %12, align 4, !tbaa !30
  %35 = load i32, ptr %8, align 4, !tbaa !30
  %36 = mul nsw i32 %34, %35
  %37 = load i32, ptr %9, align 4, !tbaa !30
  %38 = sdiv i32 %36, %37
  store i32 %38, ptr %13, align 4, !tbaa !30
  call void @llvm.lifetime.start.p0(i64 4, ptr %14) #11
  %39 = load i32, ptr %12, align 4, !tbaa !30
  %40 = load i32, ptr %8, align 4, !tbaa !30
  %41 = add nsw i32 %40, 1
  %42 = mul nsw i32 %39, %41
  %43 = load i32, ptr %9, align 4, !tbaa !30
  %44 = sdiv i32 %42, %43
  store i32 %44, ptr %14, align 4, !tbaa !30
  %45 = load ptr, ptr %10, align 8, !tbaa !22
  %46 = getelementptr inbounds nuw %struct.AudioVectorScopeContext, ptr %45, i32 0, i32 10
  %47 = getelementptr inbounds [4 x i32], ptr %46, i64 0, i64 0
  %48 = load i32, ptr %47, align 4, !tbaa !30
  %49 = icmp eq i32 %48, 255
  br i1 %49, label %50, label %92

50:                                               ; preds = %4
  %51 = load ptr, ptr %10, align 8, !tbaa !22
  %52 = getelementptr inbounds nuw %struct.AudioVectorScopeContext, ptr %51, i32 0, i32 10
  %53 = getelementptr inbounds [4 x i32], ptr %52, i64 0, i64 1
  %54 = load i32, ptr %53, align 4, !tbaa !30
  %55 = icmp eq i32 %54, 255
  br i1 %55, label %56, label %92

56:                                               ; preds = %50
  %57 = load ptr, ptr %10, align 8, !tbaa !22
  %58 = getelementptr inbounds nuw %struct.AudioVectorScopeContext, ptr %57, i32 0, i32 10
  %59 = getelementptr inbounds [4 x i32], ptr %58, i64 0, i64 2
  %60 = load i32, ptr %59, align 4, !tbaa !30
  %61 = icmp eq i32 %60, 255
  br i1 %61, label %62, label %92

62:                                               ; preds = %56
  call void @llvm.lifetime.start.p0(i64 4, ptr %15) #11
  %63 = load i32, ptr %13, align 4, !tbaa !30
  store i32 %63, ptr %15, align 4, !tbaa !30
  br label %64

64:                                               ; preds = %88, %62
  %65 = load i32, ptr %15, align 4, !tbaa !30
  %66 = load i32, ptr %14, align 4, !tbaa !30
  %67 = icmp slt i32 %65, %66
  br i1 %67, label %69, label %68

68:                                               ; preds = %64
  call void @llvm.lifetime.end.p0(i64 4, ptr %15) #11
  br label %91

69:                                               ; preds = %64
  %70 = load ptr, ptr %10, align 8, !tbaa !22
  %71 = getelementptr inbounds nuw %struct.AudioVectorScopeContext, ptr %70, i32 0, i32 1
  %72 = load ptr, ptr %71, align 8, !tbaa !74
  %73 = getelementptr inbounds nuw %struct.AVFrame, ptr %72, i32 0, i32 0
  %74 = getelementptr inbounds [8 x ptr], ptr %73, i64 0, i64 0
  %75 = load ptr, ptr %74, align 8, !tbaa !67
  %76 = load i32, ptr %15, align 4, !tbaa !30
  %77 = load i32, ptr %11, align 4, !tbaa !30
  %78 = mul nsw i32 %76, %77
  %79 = sext i32 %78 to i64
  %80 = getelementptr inbounds i8, ptr %75, i64 %79
  %81 = load ptr, ptr %10, align 8, !tbaa !22
  %82 = getelementptr inbounds nuw %struct.AudioVectorScopeContext, ptr %81, i32 0, i32 1
  %83 = load ptr, ptr %82, align 8, !tbaa !74
  %84 = getelementptr inbounds nuw %struct.AVFrame, ptr %83, i32 0, i32 3
  %85 = load i32, ptr %84, align 8, !tbaa !75
  %86 = mul nsw i32 %85, 4
  %87 = sext i32 %86 to i64
  call void @llvm.memset.p0.i64(ptr align 1 %80, i8 0, i64 %87, i1 false)
  br label %88

88:                                               ; preds = %69
  %89 = load i32, ptr %15, align 4, !tbaa !30
  %90 = add nsw i32 %89, 1
  store i32 %90, ptr %15, align 4, !tbaa !30
  br label %64, !llvm.loop !99

91:                                               ; preds = %68
  store i32 0, ptr %5, align 4
  store i32 1, ptr %16, align 4
  br label %327

92:                                               ; preds = %56, %50, %4
  %93 = load ptr, ptr %10, align 8, !tbaa !22
  %94 = getelementptr inbounds nuw %struct.AudioVectorScopeContext, ptr %93, i32 0, i32 10
  %95 = getelementptr inbounds [4 x i32], ptr %94, i64 0, i64 0
  %96 = load i32, ptr %95, align 4, !tbaa !30
  %97 = icmp ne i32 %96, 0
  br i1 %97, label %110, label %98

98:                                               ; preds = %92
  %99 = load ptr, ptr %10, align 8, !tbaa !22
  %100 = getelementptr inbounds nuw %struct.AudioVectorScopeContext, ptr %99, i32 0, i32 10
  %101 = getelementptr inbounds [4 x i32], ptr %100, i64 0, i64 1
  %102 = load i32, ptr %101, align 4, !tbaa !30
  %103 = icmp ne i32 %102, 0
  br i1 %103, label %110, label %104

104:                                              ; preds = %98
  %105 = load ptr, ptr %10, align 8, !tbaa !22
  %106 = getelementptr inbounds nuw %struct.AudioVectorScopeContext, ptr %105, i32 0, i32 10
  %107 = getelementptr inbounds [4 x i32], ptr %106, i64 0, i64 2
  %108 = load i32, ptr %107, align 4, !tbaa !30
  %109 = icmp ne i32 %108, 0
  br i1 %109, label %110, label %326

110:                                              ; preds = %104, %98, %92
  call void @llvm.lifetime.start.p0(i64 8, ptr %17) #11
  %111 = load ptr, ptr %10, align 8, !tbaa !22
  %112 = getelementptr inbounds nuw %struct.AudioVectorScopeContext, ptr %111, i32 0, i32 1
  %113 = load ptr, ptr %112, align 8, !tbaa !74
  %114 = getelementptr inbounds nuw %struct.AVFrame, ptr %113, i32 0, i32 0
  %115 = getelementptr inbounds [8 x ptr], ptr %114, i64 0, i64 0
  %116 = load ptr, ptr %115, align 8, !tbaa !67
  %117 = load i32, ptr %13, align 4, !tbaa !30
  %118 = load i32, ptr %11, align 4, !tbaa !30
  %119 = mul nsw i32 %117, %118
  %120 = sext i32 %119 to i64
  %121 = getelementptr inbounds i8, ptr %116, i64 %120
  store ptr %121, ptr %17, align 8, !tbaa !67
  call void @llvm.lifetime.start.p0(i64 4, ptr %18) #11
  %122 = load i32, ptr %13, align 4, !tbaa !30
  store i32 %122, ptr %18, align 4, !tbaa !30
  br label %123

123:                                              ; preds = %322, %110
  %124 = load i32, ptr %18, align 4, !tbaa !30
  %125 = load i32, ptr %14, align 4, !tbaa !30
  %126 = icmp slt i32 %124, %125
  br i1 %126, label %128, label %127

127:                                              ; preds = %123
  store i32 5, ptr %16, align 4
  call void @llvm.lifetime.end.p0(i64 4, ptr %18) #11
  br label %325

128:                                              ; preds = %123
  call void @llvm.lifetime.start.p0(i64 4, ptr %19) #11
  store i32 0, ptr %19, align 4, !tbaa !30
  br label %129

129:                                              ; preds = %314, %128
  %130 = load i32, ptr %19, align 4, !tbaa !30
  %131 = load ptr, ptr %10, align 8, !tbaa !22
  %132 = getelementptr inbounds nuw %struct.AudioVectorScopeContext, ptr %131, i32 0, i32 2
  %133 = load i32, ptr %132, align 8, !tbaa !55
  %134 = mul nsw i32 %133, 4
  %135 = icmp slt i32 %130, %134
  br i1 %135, label %137, label %136

136:                                              ; preds = %129
  store i32 8, ptr %16, align 4
  call void @llvm.lifetime.end.p0(i64 4, ptr %19) #11
  br label %317

137:                                              ; preds = %129
  %138 = load ptr, ptr %17, align 8, !tbaa !67
  %139 = load i32, ptr %19, align 4, !tbaa !30
  %140 = add nsw i32 %139, 0
  %141 = sext i32 %140 to i64
  %142 = getelementptr inbounds i8, ptr %138, i64 %141
  %143 = load i8, ptr %142, align 1, !tbaa !100
  %144 = icmp ne i8 %143, 0
  br i1 %144, label %145, label %181

145:                                              ; preds = %137
  %146 = load ptr, ptr %17, align 8, !tbaa !67
  %147 = load i32, ptr %19, align 4, !tbaa !30
  %148 = add nsw i32 %147, 0
  %149 = sext i32 %148 to i64
  %150 = getelementptr inbounds i8, ptr %146, i64 %149
  %151 = load i8, ptr %150, align 1, !tbaa !100
  %152 = zext i8 %151 to i32
  %153 = load ptr, ptr %10, align 8, !tbaa !22
  %154 = getelementptr inbounds nuw %struct.AudioVectorScopeContext, ptr %153, i32 0, i32 10
  %155 = getelementptr inbounds [4 x i32], ptr %154, i64 0, i64 0
  %156 = load i32, ptr %155, align 4, !tbaa !30
  %157 = sub nsw i32 %152, %156
  %158 = icmp sgt i32 %157, 0
  br i1 %158, label %159, label %172

159:                                              ; preds = %145
  %160 = load ptr, ptr %17, align 8, !tbaa !67
  %161 = load i32, ptr %19, align 4, !tbaa !30
  %162 = add nsw i32 %161, 0
  %163 = sext i32 %162 to i64
  %164 = getelementptr inbounds i8, ptr %160, i64 %163
  %165 = load i8, ptr %164, align 1, !tbaa !100
  %166 = zext i8 %165 to i32
  %167 = load ptr, ptr %10, align 8, !tbaa !22
  %168 = getelementptr inbounds nuw %struct.AudioVectorScopeContext, ptr %167, i32 0, i32 10
  %169 = getelementptr inbounds [4 x i32], ptr %168, i64 0, i64 0
  %170 = load i32, ptr %169, align 4, !tbaa !30
  %171 = sub nsw i32 %166, %170
  br label %173

172:                                              ; preds = %145
  br label %173

173:                                              ; preds = %172, %159
  %174 = phi i32 [ %171, %159 ], [ 0, %172 ]
  %175 = trunc i32 %174 to i8
  %176 = load ptr, ptr %17, align 8, !tbaa !67
  %177 = load i32, ptr %19, align 4, !tbaa !30
  %178 = add nsw i32 %177, 0
  %179 = sext i32 %178 to i64
  %180 = getelementptr inbounds i8, ptr %176, i64 %179
  store i8 %175, ptr %180, align 1, !tbaa !100
  br label %181

181:                                              ; preds = %173, %137
  %182 = load ptr, ptr %17, align 8, !tbaa !67
  %183 = load i32, ptr %19, align 4, !tbaa !30
  %184 = add nsw i32 %183, 1
  %185 = sext i32 %184 to i64
  %186 = getelementptr inbounds i8, ptr %182, i64 %185
  %187 = load i8, ptr %186, align 1, !tbaa !100
  %188 = icmp ne i8 %187, 0
  br i1 %188, label %189, label %225

189:                                              ; preds = %181
  %190 = load ptr, ptr %17, align 8, !tbaa !67
  %191 = load i32, ptr %19, align 4, !tbaa !30
  %192 = add nsw i32 %191, 1
  %193 = sext i32 %192 to i64
  %194 = getelementptr inbounds i8, ptr %190, i64 %193
  %195 = load i8, ptr %194, align 1, !tbaa !100
  %196 = zext i8 %195 to i32
  %197 = load ptr, ptr %10, align 8, !tbaa !22
  %198 = getelementptr inbounds nuw %struct.AudioVectorScopeContext, ptr %197, i32 0, i32 10
  %199 = getelementptr inbounds [4 x i32], ptr %198, i64 0, i64 1
  %200 = load i32, ptr %199, align 4, !tbaa !30
  %201 = sub nsw i32 %196, %200
  %202 = icmp sgt i32 %201, 0
  br i1 %202, label %203, label %216

203:                                              ; preds = %189
  %204 = load ptr, ptr %17, align 8, !tbaa !67
  %205 = load i32, ptr %19, align 4, !tbaa !30
  %206 = add nsw i32 %205, 1
  %207 = sext i32 %206 to i64
  %208 = getelementptr inbounds i8, ptr %204, i64 %207
  %209 = load i8, ptr %208, align 1, !tbaa !100
  %210 = zext i8 %209 to i32
  %211 = load ptr, ptr %10, align 8, !tbaa !22
  %212 = getelementptr inbounds nuw %struct.AudioVectorScopeContext, ptr %211, i32 0, i32 10
  %213 = getelementptr inbounds [4 x i32], ptr %212, i64 0, i64 1
  %214 = load i32, ptr %213, align 4, !tbaa !30
  %215 = sub nsw i32 %210, %214
  br label %217

216:                                              ; preds = %189
  br label %217

217:                                              ; preds = %216, %203
  %218 = phi i32 [ %215, %203 ], [ 0, %216 ]
  %219 = trunc i32 %218 to i8
  %220 = load ptr, ptr %17, align 8, !tbaa !67
  %221 = load i32, ptr %19, align 4, !tbaa !30
  %222 = add nsw i32 %221, 1
  %223 = sext i32 %222 to i64
  %224 = getelementptr inbounds i8, ptr %220, i64 %223
  store i8 %219, ptr %224, align 1, !tbaa !100
  br label %225

225:                                              ; preds = %217, %181
  %226 = load ptr, ptr %17, align 8, !tbaa !67
  %227 = load i32, ptr %19, align 4, !tbaa !30
  %228 = add nsw i32 %227, 2
  %229 = sext i32 %228 to i64
  %230 = getelementptr inbounds i8, ptr %226, i64 %229
  %231 = load i8, ptr %230, align 1, !tbaa !100
  %232 = icmp ne i8 %231, 0
  br i1 %232, label %233, label %269

233:                                              ; preds = %225
  %234 = load ptr, ptr %17, align 8, !tbaa !67
  %235 = load i32, ptr %19, align 4, !tbaa !30
  %236 = add nsw i32 %235, 2
  %237 = sext i32 %236 to i64
  %238 = getelementptr inbounds i8, ptr %234, i64 %237
  %239 = load i8, ptr %238, align 1, !tbaa !100
  %240 = zext i8 %239 to i32
  %241 = load ptr, ptr %10, align 8, !tbaa !22
  %242 = getelementptr inbounds nuw %struct.AudioVectorScopeContext, ptr %241, i32 0, i32 10
  %243 = getelementptr inbounds [4 x i32], ptr %242, i64 0, i64 2
  %244 = load i32, ptr %243, align 4, !tbaa !30
  %245 = sub nsw i32 %240, %244
  %246 = icmp sgt i32 %245, 0
  br i1 %246, label %247, label %260

247:                                              ; preds = %233
  %248 = load ptr, ptr %17, align 8, !tbaa !67
  %249 = load i32, ptr %19, align 4, !tbaa !30
  %250 = add nsw i32 %249, 2
  %251 = sext i32 %250 to i64
  %252 = getelementptr inbounds i8, ptr %248, i64 %251
  %253 = load i8, ptr %252, align 1, !tbaa !100
  %254 = zext i8 %253 to i32
  %255 = load ptr, ptr %10, align 8, !tbaa !22
  %256 = getelementptr inbounds nuw %struct.AudioVectorScopeContext, ptr %255, i32 0, i32 10
  %257 = getelementptr inbounds [4 x i32], ptr %256, i64 0, i64 2
  %258 = load i32, ptr %257, align 4, !tbaa !30
  %259 = sub nsw i32 %254, %258
  br label %261

260:                                              ; preds = %233
  br label %261

261:                                              ; preds = %260, %247
  %262 = phi i32 [ %259, %247 ], [ 0, %260 ]
  %263 = trunc i32 %262 to i8
  %264 = load ptr, ptr %17, align 8, !tbaa !67
  %265 = load i32, ptr %19, align 4, !tbaa !30
  %266 = add nsw i32 %265, 2
  %267 = sext i32 %266 to i64
  %268 = getelementptr inbounds i8, ptr %264, i64 %267
  store i8 %263, ptr %268, align 1, !tbaa !100
  br label %269

269:                                              ; preds = %261, %225
  %270 = load ptr, ptr %17, align 8, !tbaa !67
  %271 = load i32, ptr %19, align 4, !tbaa !30
  %272 = add nsw i32 %271, 3
  %273 = sext i32 %272 to i64
  %274 = getelementptr inbounds i8, ptr %270, i64 %273
  %275 = load i8, ptr %274, align 1, !tbaa !100
  %276 = icmp ne i8 %275, 0
  br i1 %276, label %277, label %313

277:                                              ; preds = %269
  %278 = load ptr, ptr %17, align 8, !tbaa !67
  %279 = load i32, ptr %19, align 4, !tbaa !30
  %280 = add nsw i32 %279, 3
  %281 = sext i32 %280 to i64
  %282 = getelementptr inbounds i8, ptr %278, i64 %281
  %283 = load i8, ptr %282, align 1, !tbaa !100
  %284 = zext i8 %283 to i32
  %285 = load ptr, ptr %10, align 8, !tbaa !22
  %286 = getelementptr inbounds nuw %struct.AudioVectorScopeContext, ptr %285, i32 0, i32 10
  %287 = getelementptr inbounds [4 x i32], ptr %286, i64 0, i64 3
  %288 = load i32, ptr %287, align 4, !tbaa !30
  %289 = sub nsw i32 %284, %288
  %290 = icmp sgt i32 %289, 0
  br i1 %290, label %291, label %304

291:                                              ; preds = %277
  %292 = load ptr, ptr %17, align 8, !tbaa !67
  %293 = load i32, ptr %19, align 4, !tbaa !30
  %294 = add nsw i32 %293, 3
  %295 = sext i32 %294 to i64
  %296 = getelementptr inbounds i8, ptr %292, i64 %295
  %297 = load i8, ptr %296, align 1, !tbaa !100
  %298 = zext i8 %297 to i32
  %299 = load ptr, ptr %10, align 8, !tbaa !22
  %300 = getelementptr inbounds nuw %struct.AudioVectorScopeContext, ptr %299, i32 0, i32 10
  %301 = getelementptr inbounds [4 x i32], ptr %300, i64 0, i64 3
  %302 = load i32, ptr %301, align 4, !tbaa !30
  %303 = sub nsw i32 %298, %302
  br label %305

304:                                              ; preds = %277
  br label %305

305:                                              ; preds = %304, %291
  %306 = phi i32 [ %303, %291 ], [ 0, %304 ]
  %307 = trunc i32 %306 to i8
  %308 = load ptr, ptr %17, align 8, !tbaa !67
  %309 = load i32, ptr %19, align 4, !tbaa !30
  %310 = add nsw i32 %309, 3
  %311 = sext i32 %310 to i64
  %312 = getelementptr inbounds i8, ptr %308, i64 %311
  store i8 %307, ptr %312, align 1, !tbaa !100
  br label %313

313:                                              ; preds = %305, %269
  br label %314

314:                                              ; preds = %313
  %315 = load i32, ptr %19, align 4, !tbaa !30
  %316 = add nsw i32 %315, 4
  store i32 %316, ptr %19, align 4, !tbaa !30
  br label %129, !llvm.loop !101

317:                                              ; preds = %136
  %318 = load i32, ptr %11, align 4, !tbaa !30
  %319 = load ptr, ptr %17, align 8, !tbaa !67
  %320 = sext i32 %318 to i64
  %321 = getelementptr inbounds i8, ptr %319, i64 %320
  store ptr %321, ptr %17, align 8, !tbaa !67
  br label %322

322:                                              ; preds = %317
  %323 = load i32, ptr %18, align 4, !tbaa !30
  %324 = add nsw i32 %323, 1
  store i32 %324, ptr %18, align 4, !tbaa !30
  br label %123, !llvm.loop !102

325:                                              ; preds = %127
  call void @llvm.lifetime.end.p0(i64 8, ptr %17) #11
  br label %326

326:                                              ; preds = %325, %104
  store i32 0, ptr %5, align 4
  store i32 1, ptr %16, align 4
  br label %327

327:                                              ; preds = %326, %91
  call void @llvm.lifetime.end.p0(i64 4, ptr %14) #11
  call void @llvm.lifetime.end.p0(i64 4, ptr %13) #11
  call void @llvm.lifetime.end.p0(i64 4, ptr %12) #11
  call void @llvm.lifetime.end.p0(i64 4, ptr %11) #11
  call void @llvm.lifetime.end.p0(i64 8, ptr %10) #11
  %328 = load i32, ptr %5, align 4
  ret i32 %328
}