; Function Attrs: nofree norecurse nosync nounwind memory(readwrite, inaccessiblemem: none) uwtable
define internal noundef i32 @fade(ptr noundef readonly captures(none) %0, ptr readnone captures(none) %1, i32 noundef %2, i32 noundef %3) #8 {
  %5 = getelementptr inbounds nuw i8, ptr %0, i64 72
  %6 = load ptr, ptr %5, align 8, !tbaa !4
  %7 = getelementptr inbounds nuw i8, ptr %6, i64 8
  %8 = load ptr, ptr %7, align 8, !tbaa !46
  %9 = getelementptr inbounds nuw i8, ptr %8, i64 64
  %10 = load i32, ptr %9, align 8, !tbaa !56
  %11 = getelementptr inbounds nuw i8, ptr %8, i64 108
  %12 = load i32, ptr %11, align 4, !tbaa !54
  %13 = mul nsw i32 %12, %2
  %14 = sdiv i32 %13, %3
  %15 = add nsw i32 %2, 1
  %16 = mul nsw i32 %12, %15
  %17 = sdiv i32 %16, %3
  %18 = getelementptr inbounds nuw i8, ptr %6, i64 60
  %19 = load i32, ptr %18, align 4, !tbaa !56
  switch i32 %19, label %.thread [
    i32 255, label %20
    i32 0, label %39
  ]

20:                                               ; preds = %4
  %21 = getelementptr inbounds nuw i8, ptr %6, i64 64
  %22 = load i32, ptr %21, align 4, !tbaa !56
  %23 = icmp eq i32 %22, 255
  br i1 %23, label %24, label %.thread

24:                                               ; preds = %20
  %25 = getelementptr inbounds nuw i8, ptr %6, i64 68
  %26 = load i32, ptr %25, align 4, !tbaa !56
  %27 = icmp eq i32 %26, 255
  br i1 %27, label %.preheader101, label %.thread

.preheader101:                                    ; preds = %24
  %28 = icmp slt i32 %14, %17
  br i1 %28, label %.lr.ph.preheader, label %.loopexit

.lr.ph.preheader:                                 ; preds = %.preheader101
  %29 = sext i32 %14 to i64
  %30 = sext i32 %10 to i64
  %wide.trip.count = sext i32 %17 to i64
  br label %.lr.ph

.lr.ph:                                           ; preds = %.lr.ph.preheader, %.lr.ph
  %indvars.iv = phi i64 [ %29, %.lr.ph.preheader ], [ %indvars.iv.next, %.lr.ph ]
  %31 = load ptr, ptr %7, align 8, !tbaa !46
  %32 = load ptr, ptr %31, align 8, !tbaa !40
  %33 = mul nsw i64 %indvars.iv, %30
  %34 = getelementptr inbounds i8, ptr %32, i64 %33
  %35 = getelementptr inbounds nuw i8, ptr %31, i64 104
  %36 = load i32, ptr %35, align 8, !tbaa !47
  %37 = shl nsw i32 %36, 2
  %38 = sext i32 %37 to i64
  tail call void @llvm.memset.p0.i64(ptr align 1 %34, i8 0, i64 %38, i1 false)
  %indvars.iv.next = add nsw i64 %indvars.iv, 1
  %exitcond.not = icmp eq i64 %indvars.iv.next, %wide.trip.count
  br i1 %exitcond.not, label %.loopexit, label %.lr.ph, !llvm.loop !83

39:                                               ; preds = %4
  %40 = getelementptr inbounds nuw i8, ptr %6, i64 64
  %41 = load i32, ptr %40, align 4, !tbaa !56
  %.not87 = icmp eq i32 %41, 0
  br i1 %.not87, label %42, label %.thread

42:                                               ; preds = %39
  %43 = getelementptr inbounds nuw i8, ptr %6, i64 68
  %44 = load i32, ptr %43, align 4, !tbaa !56
  %.not88 = icmp ne i32 %44, 0
  %45 = icmp slt i32 %14, %17
  %or.cond = select i1 %.not88, i1 %45, i1 false
  br i1 %or.cond, label %.preheader.lr.ph, label %.loopexit

.thread:                                          ; preds = %4, %20, %24, %39
  %.old = icmp slt i32 %14, %17
  br i1 %.old, label %.preheader.lr.ph, label %.loopexit

.preheader.lr.ph:                                 ; preds = %42, %.thread
  %46 = load ptr, ptr %8, align 8, !tbaa !40
  %47 = mul nsw i32 %14, %10
  %48 = sext i32 %47 to i64
  %49 = getelementptr inbounds i8, ptr %46, i64 %48
  %50 = getelementptr inbounds nuw i8, ptr %6, i64 16
  %51 = getelementptr inbounds nuw i8, ptr %6, i64 64
  %52 = getelementptr inbounds nuw i8, ptr %6, i64 68
  %53 = getelementptr inbounds nuw i8, ptr %6, i64 72
  %54 = sext i32 %10 to i64
  %.pre = load i32, ptr %50, align 8, !tbaa !75
  br label %.preheader

.preheader:                                       ; preds = %.preheader.lr.ph, %._crit_edge
  %55 = phi i32 [ %.pre, %.preheader.lr.ph ], [ %57, %._crit_edge ]
  %.075107 = phi i32 [ %14, %.preheader.lr.ph ], [ %59, %._crit_edge ]
  %.076106 = phi ptr [ %49, %.preheader.lr.ph ], [ %58, %._crit_edge ]
  %56 = icmp sgt i32 %55, 0
  br i1 %56, label %.lr.ph105, label %._crit_edge

._crit_edge:                                      ; preds = %87, %.preheader
  %57 = phi i32 [ %55, %.preheader ], [ %88, %87 ]
  %58 = getelementptr inbounds i8, ptr %.076106, i64 %54
  %59 = add nsw i32 %.075107, 1
  %exitcond113.not = icmp eq i32 %59, %17
  br i1 %exitcond113.not, label %.loopexit, label %.preheader, !llvm.loop !84

.lr.ph105:                                        ; preds = %.preheader, %87
  %indvars.iv110 = phi i64 [ %indvars.iv.next111, %87 ], [ 0, %.preheader ]
  %60 = getelementptr inbounds nuw i8, ptr %.076106, i64 %indvars.iv110
  %61 = load i8, ptr %60, align 1, !tbaa !76
  %.not89 = icmp eq i8 %61, 0
  br i1 %.not89, label %66, label %62

62:                                               ; preds = %.lr.ph105
  %63 = zext i8 %61 to i32
  %64 = load i32, ptr %18, align 4, !tbaa !56
  %65 = sub nsw i32 %63, %64
  %spec.select97 = tail call i32 @llvm.smax.i32(i32 %65, i32 0)
  %spec.select = trunc i32 %spec.select97 to i8
  store i8 %spec.select, ptr %60, align 1, !tbaa !76
  br label %66

66:                                               ; preds = %62, %.lr.ph105
  %67 = getelementptr inbounds nuw i8, ptr %60, i64 1
  %68 = load i8, ptr %67, align 1, !tbaa !76
  %.not90 = icmp eq i8 %68, 0
  br i1 %.not90, label %73, label %69

69:                                               ; preds = %66
  %70 = zext i8 %68 to i32
  %71 = load i32, ptr %51, align 4, !tbaa !56
  %72 = sub nsw i32 %70, %71
  %spec.select9398 = tail call i32 @llvm.smax.i32(i32 %72, i32 0)
  %spec.select93 = trunc i32 %spec.select9398 to i8
  store i8 %spec.select93, ptr %67, align 1, !tbaa !76
  br label %73

73:                                               ; preds = %69, %66
  %74 = getelementptr inbounds nuw i8, ptr %60, i64 2
  %75 = load i8, ptr %74, align 1, !tbaa !76
  %.not91 = icmp eq i8 %75, 0
  br i1 %.not91, label %80, label %76

76:                                               ; preds = %73
  %77 = zext i8 %75 to i32
  %78 = load i32, ptr %52, align 4, !tbaa !56
  %79 = sub nsw i32 %77, %78
  %spec.select9499 = tail call i32 @llvm.smax.i32(i32 %79, i32 0)
  %spec.select94 = trunc i32 %spec.select9499 to i8
  store i8 %spec.select94, ptr %74, align 1, !tbaa !76
  br label %80

80:                                               ; preds = %76, %73
  %81 = getelementptr inbounds nuw i8, ptr %60, i64 3
  %82 = load i8, ptr %81, align 1, !tbaa !76
  %.not92 = icmp eq i8 %82, 0
  br i1 %.not92, label %87, label %83

83:                                               ; preds = %80
  %84 = zext i8 %82 to i32
  %85 = load i32, ptr %53, align 4, !tbaa !56
  %86 = sub nsw i32 %84, %85
  %spec.select95100 = tail call i32 @llvm.smax.i32(i32 %86, i32 0)
  %spec.select95 = trunc i32 %spec.select95100 to i8
  store i8 %spec.select95, ptr %81, align 1, !tbaa !76
  br label %87

87:                                               ; preds = %80, %83
  %indvars.iv.next111 = add nuw nsw i64 %indvars.iv110, 4
  %88 = load i32, ptr %50, align 8, !tbaa !75
  %89 = shl nsw i32 %88, 2
  %90 = sext i32 %89 to i64
  %91 = icmp slt i64 %indvars.iv.next111, %90
  br i1 %91, label %.lr.ph105, label %._crit_edge, !llvm.loop !85

.loopexit:                                        ; preds = %.lr.ph, %._crit_edge, %.preheader101, %.thread, %42
  ret i32 0
}